target datalayout = "e-m:e-p270:32:32-p271:32:32-p272:64:64-i64:64-i128:128-f80:128-n8:16:32:64-S128"
target triple = "x86_64-pc-linux-gnu"

%"class.icu_77::LoadedNormalizer2Impl" = type { %"class.icu_77::Normalizer2Impl", ptr, ptr }
%"class.icu_77::Normalizer2Impl" = type { %"class.icu_77::UObject", i16, i16, i16, i16, i16, i16, i16, i16, i16, i16, i16, i16, i16, i16, ptr, ptr, ptr, %"struct.icu_77::UInitOnce", ptr }
%"class.icu_77::UObject" = type { ptr }
%"struct.icu_77::UInitOnce" = type { %"struct.std::atomic", i32 }
%"struct.std::atomic" = type { %"struct.std::__atomic_base" }
%"struct.std::__atomic_base" = type { i32 }

@_ZTVN6icu_7721LoadedNormalizer2ImplE = unnamed_addr constant { [5 x ptr] } { [5 x ptr] [ptr null, ptr @_ZTIN6icu_7721LoadedNormalizer2ImplE, ptr @_ZN6icu_7721LoadedNormalizer2ImplD1Ev, ptr @_ZN6icu_7721LoadedNormalizer2ImplD0Ev, ptr @_ZNK6icu_777UObject17getDynamicClassIDEv] }, align 8
@_ZTVN6icu_7715Normalizer2ImplE = available_externally unnamed_addr constant { [5 x ptr] } { [5 x ptr] [ptr null, ptr @_ZTIN6icu_7715Normalizer2ImplE, ptr @_ZN6icu_7715Normalizer2ImplD1Ev, ptr @_ZN6icu_7715Normalizer2ImplD0Ev, ptr @_ZNK6icu_777UObject17getDynamicClassIDEv] }, align 8
@_ZTVN6icu_777UObjectE = available_externally unnamed_addr constant { [5 x ptr] } { [5 x ptr] [ptr null, ptr @_ZTIN6icu_777UObjectE, ptr @_ZN6icu_777UObjectD1Ev, ptr @_ZN6icu_777UObjectD0Ev, ptr @_ZNK6icu_777UObject17getDynamicClassIDEv] }, align 8

; Function Attrs: mustprogress nounwind uwtable
define linkonce_odr void @_ZNSt13__atomic_baseIiEC2Ei(ptr noundef nonnull align 4 dereferenceable(4) %0, i32 noundef %1) unnamed_addr #0 comdat align 2 {
  %3 = alloca ptr, align 8
  %4 = alloca i32, align 4
  store ptr %0, ptr %3, align 8, !tbaa !79
  store i32 %1, ptr %4, align 4, !tbaa !37
  %5 = load ptr, ptr %3, align 8
  %6 = getelementptr inbounds nuw %"struct.std::__atomic_base", ptr %5, i32 0, i32 0
  %7 = load i32, ptr %4, align 4, !tbaa !37
  store i32 %7, ptr %6, align 4, !tbaa !81
  ret void
}

; Function Attrs: mustprogress nounwind uwtable
define linkonce_odr void @_ZNSt6atomicIiEC2Ei(ptr noundef nonnull align 4 dereferenceable(4) %0, i32 noundef %1) unnamed_addr #0 comdat align 2 {
  %3 = alloca ptr, align 8
  %4 = alloca i32, align 4
  store ptr %0, ptr %3, align 8, !tbaa !77
  store i32 %1, ptr %4, align 4, !tbaa !37
  %5 = load ptr, ptr %3, align 8
  %6 = load i32, ptr %4, align 4, !tbaa !37
  call void @_ZNSt13__atomic_baseIiEC2Ei(ptr noundef nonnull align 4 dereferenceable(4) %5, i32 noundef %6) #12
  ret void
}

; Function Attrs: inlinehint mustprogress nounwind uwtable
define linkonce_odr void @_ZN6icu_777UObjectC2Ev(ptr noundef nonnull align 8 dereferenceable(8) %0) unnamed_addr #5 comdat align 2 {
  %2 = alloca ptr, align 8
  store ptr %0, ptr %2, align 8, !tbaa !75
  %3 = load ptr, ptr %2, align 8
  store ptr getelementptr inbounds inrange(-16, 24) ({ [5 x ptr] }, ptr @_ZTVN6icu_777UObjectE, i32 0, i32 0, i32 2), ptr %3, align 8, !tbaa !8
  ret void
}

; Function Attrs: mustprogress nounwind uwtable
define linkonce_odr void @_ZN6icu_7715Normalizer2ImplC2Ev(ptr noundef nonnull align 8 dereferenceable(80) %0) unnamed_addr #0 comdat align 2 {
  %2 = alloca ptr, align 8
  store ptr %0, ptr %2, align 8, !tbaa !72
  %3 = load ptr, ptr %2, align 8
  call void @_ZN6icu_777UObjectC2Ev(ptr noundef nonnull align 8 dereferenceable(8) %3) #12
  store ptr getelementptr inbounds inrange(-16, 24) ({ [5 x ptr] }, ptr @_ZTVN6icu_7715Normalizer2ImplE, i32 0, i32 0, i32 2), ptr %3, align 8, !tbaa !8
  %4 = getelementptr inbounds nuw %"class.icu_77::Normalizer2Impl", ptr %3, i32 0, i32 15
  store ptr null, ptr %4, align 8, !tbaa !73
  %5 = getelementptr inbounds nuw %"class.icu_77::Normalizer2Impl", ptr %3, i32 0, i32 18
  %6 = getelementptr inbounds nuw %"struct.icu_77::UInitOnce", ptr %5, i32 0, i32 0
  call void @_ZNSt6atomicIiEC2Ei(ptr noundef nonnull align 4 dereferenceable(4) %6, i32 noundef 0) #12
  %7 = getelementptr inbounds nuw %"struct.icu_77::UInitOnce", ptr %5, i32 0, i32 1
  store i32 0, ptr %7, align 4, !tbaa !43
  %8 = getelementptr inbounds nuw %"class.icu_77::Normalizer2Impl", ptr %3, i32 0, i32 19
  store ptr null, ptr %8, align 8, !tbaa !74
  ret void
}

; Function Attrs: mustprogress uwtable
define linkonce_odr void @_ZN6icu_7721LoadedNormalizer2ImplC2Ev(ptr noundef nonnull align 8 dereferenceable(96) %0) unnamed_addr #4 comdat align 2 {
  %2 = alloca ptr, align 8
  store ptr %0, ptr %2, align 8, !tbaa !3
  %3 = load ptr, ptr %2, align 8
  call void @_ZN6icu_7715Normalizer2ImplC2Ev(ptr noundef nonnull align 8 dereferenceable(80) %3)
  store ptr getelementptr inbounds inrange(-16, 24) ({ [5 x ptr] }, ptr @_ZTVN6icu_7721LoadedNormalizer2ImplE, i32 0, i32 0, i32 2), ptr %3, align 8, !tbaa !8
  %4 = getelementptr inbounds nuw %"class.icu_77::LoadedNormalizer2Impl", ptr %3, i32 0, i32 1
  store ptr null, ptr %4, align 8, !tbaa !10
  %5 = getelementptr inbounds nuw %"class.icu_77::LoadedNormalizer2Impl", ptr %3, i32 0, i32 2
  store ptr null, ptr %5, align 8, !tbaa !26
  ret void
}

; Function Attrs: inlinehint mustprogress nounwind uwtable
define internal noundef signext i8 @_ZL9U_FAILURE10UErrorCode(i32 noundef %0) #5 {
  %2 = alloca i32, align 4
  store i32 %0, ptr %2, align 4, !tbaa !34
  %3 = load i32, ptr %2, align 4, !tbaa !34
  %4 = icmp sgt i32 %3, 0
  %5 = zext i1 %4 to i8
  ret i8 %5
}

; Function Attrs: mustprogress uwtable
define noundef ptr @_ZN6icu_7713Norm2AllModes14createInstanceEPKcS2_R10UErrorCode(ptr noundef %0, ptr noundef %1, ptr noundef nonnull align 4 dereferenceable(4) %2) #4 align 2 personality ptr @__gxx_personality_v0 {
  %4 = alloca ptr, align 8
  %5 = alloca ptr, align 8
  %6 = alloca ptr, align 8
  %7 = alloca ptr, align 8
  %8 = alloca ptr, align 8
  %9 = alloca ptr, align 8
  %10 = alloca i1, align 1
  %11 = alloca ptr, align 8
  %12 = alloca i32, align 4
  %13 = alloca i32, align 4
  store ptr %0, ptr %5, align 8, !tbaa !28
  store ptr %1, ptr %6, align 8, !tbaa !28
  store ptr %2, ptr %7, align 8, !tbaa !27
  %14 = load ptr, ptr %7, align 8, !tbaa !27
  %15 = load i32, ptr %14, align 4, !tbaa !34
  %16 = call noundef signext i8 @_ZL9U_FAILURE10UErrorCode(i32 noundef %15)
  %17 = icmp ne i8 %16, 0
  br i1 %17, label %18, label %19

18:                                               ; preds = %3
  store ptr null, ptr %4, align 8
  br label %47

19:                                               ; preds = %3
  call void @llvm.lifetime.start.p0(i64 8, ptr %8) #12
  %20 = call noundef ptr @_ZN6icu_777UMemorynwEm(i64 noundef 96) #12
  %21 = icmp eq ptr %20, null
  store i1 false, ptr %10, align 1
  br i1 %21, label %24, label %22

22:                                               ; preds = %19
  store ptr %20, ptr %9, align 8
  store i1 true, ptr %10, align 1
  invoke void @_ZN6icu_7721LoadedNormalizer2ImplC2Ev(ptr noundef nonnull align 8 dereferenceable(96) %20)
          to label %23 unwind label %30

23:                                               ; preds = %22
  br label %24

24:                                               ; preds = %23, %19
  %25 = phi ptr [ %20, %23 ], [ null, %19 ]
  store ptr %25, ptr %8, align 8, !tbaa !3
  %26 = load ptr, ptr %8, align 8, !tbaa !3
  %27 = icmp eq ptr %26, null
  br i1 %27, label %28, label %38

28:                                               ; preds = %24
  %29 = load ptr, ptr %7, align 8, !tbaa !27
  store i32 7, ptr %29, align 4, !tbaa !34
  store ptr null, ptr %4, align 8
  store i32 1, ptr %13, align 4
  br label %46

30:                                               ; preds = %22
  %31 = landingpad { ptr, i32 }
          cleanup
  %32 = extractvalue { ptr, i32 } %31, 0
  store ptr %32, ptr %11, align 8
  %33 = extractvalue { ptr, i32 } %31, 1
  store i32 %33, ptr %12, align 4
  %34 = load i1, ptr %10, align 1
  br i1 %34, label %35, label %37

35:                                               ; preds = %30
  %36 = load ptr, ptr %9, align 8
  call void @_ZN6icu_777UMemorydlEPv(ptr noundef %36) #12
  br label %37

37:                                               ; preds = %35, %30
  call void @llvm.lifetime.end.p0(i64 8, ptr %8) #12
  br label %49

38:                                               ; preds = %24
  %39 = load ptr, ptr %8, align 8, !tbaa !3
  %40 = load ptr, ptr %5, align 8, !tbaa !28
  %41 = load ptr, ptr %6, align 8, !tbaa !28
  %42 = load ptr, ptr %7, align 8, !tbaa !27
  call void @_ZN6icu_7721LoadedNormalizer2Impl4loadEPKcS2_R10UErrorCode(ptr noundef nonnull align 8 dereferenceable(96) %39, ptr noundef %40, ptr noundef %41, ptr noundef nonnull align 4 dereferenceable(4) %42)
  %43 = load ptr, ptr %8, align 8, !tbaa !3
  %44 = load ptr, ptr %7, align 8, !tbaa !27
  %45 = call noundef ptr @_ZN6icu_7713Norm2AllModes14createInstanceEPNS_15Normalizer2ImplER10UErrorCode(ptr noundef %43, ptr noundef nonnull align 4 dereferenceable(4) %44)
  store ptr %45, ptr %4, align 8
  store i32 1, ptr %13, align 4
  br label %46

46:                                               ; preds = %38, %28
  call void @llvm.lifetime.end.p0(i64 8, ptr %8) #12
  br label %47

47:                                               ; preds = %46, %18
  %48 = load ptr, ptr %4, align 8
  ret ptr %48

49:                                               ; preds = %37
  %50 = load ptr, ptr %11, align 8
  %51 = load i32, ptr %12, align 4
  %52 = insertvalue { ptr, i32 } poison, ptr %50, 0
  %53 = insertvalue { ptr, i32 } %52, i32 %51, 1
  resume { ptr, i32 } %53
}