; Function Attrs: mustprogress uwtable
define noundef ptr @_ZN6icu_7713Norm2AllModes14createInstanceEPKcS2_R10UErrorCode(ptr noundef %0, ptr noundef %1, ptr noundef nonnull align 4 dereferenceable(4) %2) local_unnamed_addr #6 align 2 personality ptr @__gxx_personality_v0 {
  %4 = load i32, ptr %2, align 4, !tbaa !30
  %5 = icmp slt i32 %4, 1
  br i1 %5, label %6, label %15

6:                                                ; preds = %3
  %7 = tail call noundef ptr @_ZN6icu_777UMemorynwEm(i64 noundef 96) #13
  %8 = icmp eq ptr %7, null
  br i1 %8, label %9, label %10

9:                                                ; preds = %6
  store i32 7, ptr %2, align 4, !tbaa !30
  br label %15

10:                                               ; preds = %6
  %11 = getelementptr inbounds nuw i8, ptr %7, i64 40
  store ptr null, ptr %11, align 8, !tbaa !32
  %12 = getelementptr inbounds nuw i8, ptr %7, i64 64
  tail call void @llvm.memset.p0.i64(ptr noundef nonnull align 8 dereferenceable(16) %12, i8 0, i64 16, i1 false)
  store ptr getelementptr inbounds nuw inrange(-16, 24) (i8, ptr @_ZTVN6icu_7721LoadedNormalizer2ImplE, i64 16), ptr %7, align 8, !tbaa !3
  %13 = getelementptr inbounds nuw i8, ptr %7, i64 80
  tail call void @llvm.memset.p0.i64(ptr noundef nonnull align 8 dereferenceable(16) %13, i8 0, i64 16, i1 false)
  tail call void @_ZN6icu_7721LoadedNormalizer2Impl4loadEPKcS2_R10UErrorCode(ptr noundef nonnull align 8 dereferenceable(96) %7, ptr noundef %0, ptr noundef %1, ptr noundef nonnull align 4 dereferenceable(4) %2)
  %14 = tail call noundef ptr @_ZN6icu_7713Norm2AllModes14createInstanceEPNS_15Normalizer2ImplER10UErrorCode(ptr noundef nonnull %7, ptr noundef nonnull align 4 dereferenceable(4) %2)
  br label %15

15:                                               ; preds = %9, %10, %3
  %.0 = phi ptr [ null, %3 ], [ null, %9 ], [ %14, %10 ]
  ret ptr %.0
}